target datalayout = "e-m:e-p270:32:32-p271:32:32-p272:64:64-i64:64-i128:128-f80:128-n8:16:32:64-S128"
target triple = "x86_64-pc-linux-gnu"

%struct.GVJ_s = type { ptr, ptr, ptr, ptr, ptr, ptr, i32, ptr, ptr, ptr, ptr, i64, i64, ptr, i32, %struct.gvplugin_active_render_s, %struct.gvplugin_active_device_s, %struct.gvplugin_active_loadimage_t, ptr, %struct.pointf_s, i8, ptr, i32, ptr, i8, ptr, i32, i32, i32, %struct.point, %struct.point, %struct.point, %struct.point, %struct.point, i32, %struct.boxf, %struct.pointf_s, %struct.boxf, %struct.boxf, %struct.pointf_s, %struct.pointf_s, double, i32, %struct.pointf_s, %struct.boxf, %struct.pointf_s, %struct.pointf_s, i32, i32, %struct.box, %struct.box, %struct.pointf_s, %struct.pointf_s, %struct.pointf_s, i8, i8, i8, i8, i8, i8, %struct.pointf_s, %struct.pointf_s, ptr, ptr, ptr, ptr, ptr, ptr, i64, ptr }
%struct.gvplugin_active_render_s = type { ptr, i32, ptr, ptr }
%struct.gvplugin_active_device_s = type { ptr, i32, ptr, ptr }
%struct.gvplugin_active_loadimage_t = type { ptr, i32, ptr }
%struct.point = type { i32, i32 }
%struct.boxf = type { %struct.pointf_s, %struct.pointf_s }
%struct.box = type { %struct.point, %struct.point }
%struct.pointf_s = type { double, double }

; Function Attrs: nounwind uwtable
define internal i32 @toggle_fit_cb(ptr noundef %0) #0 {
  %2 = alloca ptr, align 8
  %3 = alloca i32, align 4
  %4 = alloca i32, align 4
  store ptr %0, ptr %2, align 8, !tbaa !3
  %5 = load ptr, ptr %2, align 8, !tbaa !3
  %6 = getelementptr inbounds nuw %struct.GVJ_s, ptr %5, i32 0, i32 54
  %7 = load i8, ptr %6, align 8, !tbaa !8, !range !35, !noundef !36
  %8 = trunc i8 %7 to i1
  %9 = xor i1 %8, true
  %10 = load ptr, ptr %2, align 8, !tbaa !3
  %11 = getelementptr inbounds nuw %struct.GVJ_s, ptr %10, i32 0, i32 54
  %12 = zext i1 %9 to i8
  store i8 %12, ptr %11, align 8, !tbaa !8
  %13 = load ptr, ptr %2, align 8, !tbaa !3
  %14 = getelementptr inbounds nuw %struct.GVJ_s, ptr %13, i32 0, i32 54
  %15 = load i8, ptr %14, align 8, !tbaa !8, !range !35, !noundef !36
  %16 = trunc i8 %15 to i1
  br i1 %16, label %17, label %67

17:                                               ; preds = %1
  call void @llvm.lifetime.start.p0(i64 4, ptr %3) #6
  call void @llvm.lifetime.start.p0(i64 4, ptr %4) #6
  %18 = load ptr, ptr %2, align 8, !tbaa !3
  %19 = getelementptr inbounds nuw %struct.GVJ_s, ptr %18, i32 0, i32 47
  %20 = load i32, ptr %19, align 8, !tbaa !37
  store i32 %20, ptr %3, align 4, !tbaa !38
  %21 = load ptr, ptr %2, align 8, !tbaa !3
  %22 = getelementptr inbounds nuw %struct.GVJ_s, ptr %21, i32 0, i32 48
  %23 = load i32, ptr %22, align 4, !tbaa !39
  store i32 %23, ptr %4, align 4, !tbaa !38
  %24 = load ptr, ptr %2, align 8, !tbaa !3
  %25 = getelementptr inbounds nuw %struct.GVJ_s, ptr %24, i32 0, i32 47
  %26 = load i32, ptr %25, align 8, !tbaa !37
  %27 = uitofp i32 %26 to double
  %28 = load i32, ptr %3, align 4, !tbaa !38
  %29 = sitofp i32 %28 to double
  %30 = fdiv double %27, %29
  %31 = load ptr, ptr %2, align 8, !tbaa !3
  %32 = getelementptr inbounds nuw %struct.GVJ_s, ptr %31, i32 0, i32 48
  %33 = load i32, ptr %32, align 4, !tbaa !39
  %34 = uitofp i32 %33 to double
  %35 = load i32, ptr %4, align 4, !tbaa !38
  %36 = sitofp i32 %35 to double
  %37 = fdiv double %34, %36
  %38 = fcmp olt double %30, %37
  br i1 %38, label %39, label %47

39:                                               ; preds = %17
  %40 = load ptr, ptr %2, align 8, !tbaa !3
  %41 = getelementptr inbounds nuw %struct.GVJ_s, ptr %40, i32 0, i32 47
  %42 = load i32, ptr %41, align 8, !tbaa !37
  %43 = uitofp i32 %42 to double
  %44 = load i32, ptr %3, align 4, !tbaa !38
  %45 = sitofp i32 %44 to double
  %46 = fdiv double %43, %45
  br label %55

47:                                               ; preds = %17
  %48 = load ptr, ptr %2, align 8, !tbaa !3
  %49 = getelementptr inbounds nuw %struct.GVJ_s, ptr %48, i32 0, i32 48
  %50 = load i32, ptr %49, align 4, !tbaa !39
  %51 = uitofp i32 %50 to double
  %52 = load i32, ptr %4, align 4, !tbaa !38
  %53 = sitofp i32 %52 to double
  %54 = fdiv double %51, %53
  br label %55

55:                                               ; preds = %47, %39
  %56 = phi double [ %46, %39 ], [ %54, %47 ]
  %57 = load ptr, ptr %2, align 8, !tbaa !3
  %58 = getelementptr inbounds nuw %struct.GVJ_s, ptr %57, i32 0, i32 41
  store double %56, ptr %58, align 8, !tbaa !31
  %59 = load ptr, ptr %2, align 8, !tbaa !3
  %60 = getelementptr inbounds nuw %struct.GVJ_s, ptr %59, i32 0, i32 40
  %61 = getelementptr inbounds nuw %struct.pointf_s, ptr %60, i32 0, i32 0
  store double 0.000000e+00, ptr %61, align 8, !tbaa !32
  %62 = load ptr, ptr %2, align 8, !tbaa !3
  %63 = getelementptr inbounds nuw %struct.GVJ_s, ptr %62, i32 0, i32 40
  %64 = getelementptr inbounds nuw %struct.pointf_s, ptr %63, i32 0, i32 1
  store double 0.000000e+00, ptr %64, align 8, !tbaa !34
  %65 = load ptr, ptr %2, align 8, !tbaa !3
  %66 = getelementptr inbounds nuw %struct.GVJ_s, ptr %65, i32 0, i32 55
  store i8 1, ptr %66, align 1, !tbaa !33
  call void @llvm.lifetime.end.p0(i64 4, ptr %4) #6
  call void @llvm.lifetime.end.p0(i64 4, ptr %3) #6
  br label %67

67:                                               ; preds = %55, %1
  ret i32 0
}