; Function Attrs: mustprogress nofree norecurse nosync nounwind willreturn memory(argmem: readwrite) uwtable
define internal noundef i32 @toggle_fit_cb(ptr noundef captures(none) %0) #1 {
  %2 = getelementptr inbounds nuw i8, ptr %0, i64 664
  %3 = load i8, ptr %2, align 8, !tbaa !3, !range !34, !noundef !35
  %4 = trunc nuw i8 %3 to i1
  %5 = xor i8 %3, 1
  store i8 %5, ptr %2, align 8, !tbaa !3
  br i1 %4, label %21, label %6

6:                                                ; preds = %1
  %7 = getelementptr inbounds nuw i8, ptr %0, i64 576
  %8 = load i32, ptr %7, align 8, !tbaa !36
  %9 = getelementptr inbounds nuw i8, ptr %0, i64 580
  %10 = load i32, ptr %9, align 4, !tbaa !37
  %11 = uitofp i32 %8 to double
  %12 = sitofp i32 %8 to double
  %13 = fdiv double %11, %12
  %14 = uitofp i32 %10 to double
  %15 = sitofp i32 %10 to double
  %16 = fdiv double %14, %15
  %17 = fcmp olt double %13, %16
  %. = select i1 %17, double %13, double %16
  %18 = getelementptr inbounds nuw i8, ptr %0, i64 480
  store double %., ptr %18, align 8, !tbaa !30
  %19 = getelementptr inbounds nuw i8, ptr %0, i64 464
  %20 = getelementptr inbounds nuw i8, ptr %0, i64 665
  tail call void @llvm.memset.p0.i64(ptr noundef nonnull align 8 dereferenceable(16) %19, i8 0, i64 16, i1 false)
  store i8 1, ptr %20, align 1, !tbaa !32
  br label %21

21:                                               ; preds = %6, %1
  ret i32 0
}